target datalayout = "e-m:e-p270:32:32-p271:32:32-p272:64:64-i64:64-i128:128-f80:128-n8:16:32:64-S128"
target triple = "x86_64-pc-linux-gnu"

%struct.sha512_ctx = type { [8 x i64], [2 x i64], i64, [256 x i8] }

; Function Attrs: nounwind uwtable
define internal void @sha512_process_bytes(ptr noundef %0, i64 noundef %1, ptr noundef %2) #0 {
  %4 = alloca ptr, align 8
  %5 = alloca i64, align 8
  %6 = alloca ptr, align 8
  %7 = alloca i64, align 8
  %8 = alloca i64, align 8
  %9 = alloca i64, align 8
  store ptr %0, ptr %4, align 8
  store i64 %1, ptr %5, align 8
  store ptr %2, ptr %6, align 8
  %10 = load ptr, ptr %6, align 8
  %11 = getelementptr inbounds %struct.sha512_ctx, ptr %10, i32 0, i32 2
  %12 = load i64, ptr %11, align 8
  %13 = icmp ne i64 %12, 0
  br i1 %13, label %14, label %77

14:                                               ; preds = %3
  %15 = load ptr, ptr %6, align 8
  %16 = getelementptr inbounds %struct.sha512_ctx, ptr %15, i32 0, i32 2
  %17 = load i64, ptr %16, align 8
  store i64 %17, ptr %7, align 8
  %18 = load i64, ptr %7, align 8
  %19 = sub i64 256, %18
  %20 = load i64, ptr %5, align 8
  %21 = icmp ugt i64 %19, %20
  br i1 %21, label %22, label %24

22:                                               ; preds = %14
  %23 = load i64, ptr %5, align 8
  br label %27

24:                                               ; preds = %14
  %25 = load i64, ptr %7, align 8
  %26 = sub i64 256, %25
  br label %27

27:                                               ; preds = %24, %22
  %28 = phi i64 [ %23, %22 ], [ %26, %24 ]
  store i64 %28, ptr %8, align 8
  %29 = load ptr, ptr %6, align 8
  %30 = getelementptr inbounds %struct.sha512_ctx, ptr %29, i32 0, i32 3
  %31 = load i64, ptr %7, align 8
  %32 = getelementptr inbounds [256 x i8], ptr %30, i64 0, i64 %31
  %33 = load ptr, ptr %4, align 8
  %34 = load i64, ptr %8, align 8
  call void @llvm.memcpy.p0.p0.i64(ptr align 1 %32, ptr align 1 %33, i64 %34, i1 false)
  %35 = load i64, ptr %8, align 8
  %36 = load ptr, ptr %6, align 8
  %37 = getelementptr inbounds %struct.sha512_ctx, ptr %36, i32 0, i32 2
  %38 = load i64, ptr %37, align 8
  %39 = add i64 %38, %35
  store i64 %39, ptr %37, align 8
  %40 = load ptr, ptr %6, align 8
  %41 = getelementptr inbounds %struct.sha512_ctx, ptr %40, i32 0, i32 2
  %42 = load i64, ptr %41, align 8
  %43 = icmp ugt i64 %42, 128
  br i1 %43, label %44, label %70

44:                                               ; preds = %27
  %45 = load ptr, ptr %6, align 8
  %46 = getelementptr inbounds %struct.sha512_ctx, ptr %45, i32 0, i32 3
  %47 = getelementptr inbounds [256 x i8], ptr %46, i64 0, i64 0
  %48 = load ptr, ptr %6, align 8
  %49 = getelementptr inbounds %struct.sha512_ctx, ptr %48, i32 0, i32 2
  %50 = load i64, ptr %49, align 8
  %51 = and i64 %50, -128
  %52 = load ptr, ptr %6, align 8
  call void @sha512_process_block(ptr noundef %47, i64 noundef %51, ptr noundef %52)
  %53 = load ptr, ptr %6, align 8
  %54 = getelementptr inbounds %struct.sha512_ctx, ptr %53, i32 0, i32 2
  %55 = load i64, ptr %54, align 8
  %56 = and i64 %55, 127
  store i64 %56, ptr %54, align 8
  %57 = load ptr, ptr %6, align 8
  %58 = getelementptr inbounds %struct.sha512_ctx, ptr %57, i32 0, i32 3
  %59 = getelementptr inbounds [256 x i8], ptr %58, i64 0, i64 0
  %60 = load ptr, ptr %6, align 8
  %61 = getelementptr inbounds %struct.sha512_ctx, ptr %60, i32 0, i32 3
  %62 = load i64, ptr %7, align 8
  %63 = load i64, ptr %8, align 8
  %64 = add i64 %62, %63
  %65 = and i64 %64, -128
  %66 = getelementptr inbounds [256 x i8], ptr %61, i64 0, i64 %65
  %67 = load ptr, ptr %6, align 8
  %68 = getelementptr inbounds %struct.sha512_ctx, ptr %67, i32 0, i32 2
  %69 = load i64, ptr %68, align 8
  call void @llvm.memcpy.p0.p0.i64(ptr align 8 %59, ptr align 1 %66, i64 %69, i1 false)
  br label %70

70:                                               ; preds = %44, %27
  %71 = load ptr, ptr %4, align 8
  %72 = load i64, ptr %8, align 8
  %73 = getelementptr inbounds i8, ptr %71, i64 %72
  store ptr %73, ptr %4, align 8
  %74 = load i64, ptr %8, align 8
  %75 = load i64, ptr %5, align 8
  %76 = sub i64 %75, %74
  store i64 %76, ptr %5, align 8
  br label %77

77:                                               ; preds = %70, %3
  %78 = load i64, ptr %5, align 8
  %79 = icmp uge i64 %78, 128
  br i1 %79, label %80, label %112

80:                                               ; preds = %77
  %81 = load ptr, ptr %4, align 8
  %82 = ptrtoint ptr %81 to i64
  %83 = urem i64 %82, 8
  %84 = icmp ne i64 %83, 0
  br i1 %84, label %85, label %100

85:                                               ; preds = %80
  br label %86

86:                                               ; preds = %89, %85
  %87 = load i64, ptr %5, align 8
  %88 = icmp ugt i64 %87, 128
  br i1 %88, label %89, label %99

89:                                               ; preds = %86
  %90 = load ptr, ptr %6, align 8
  %91 = getelementptr inbounds %struct.sha512_ctx, ptr %90, i32 0, i32 3
  %92 = getelementptr inbounds [256 x i8], ptr %91, i64 0, i64 0
  %93 = load ptr, ptr %4, align 8
  call void @llvm.memcpy.p0.p0.i64(ptr align 8 %92, ptr align 1 %93, i64 128, i1 false)
  %94 = load ptr, ptr %6, align 8
  call void @sha512_process_block(ptr noundef %92, i64 noundef 128, ptr noundef %94)
  %95 = load ptr, ptr %4, align 8
  %96 = getelementptr inbounds i8, ptr %95, i64 128
  store ptr %96, ptr %4, align 8
  %97 = load i64, ptr %5, align 8
  %98 = sub i64 %97, 128
  store i64 %98, ptr %5, align 8
  br label %86

99:                                               ; preds = %86
  br label %111

100:                                              ; preds = %80
  %101 = load ptr, ptr %4, align 8
  %102 = load i64, ptr %5, align 8
  %103 = and i64 %102, -128
  %104 = load ptr, ptr %6, align 8
  call void @sha512_process_block(ptr noundef %101, i64 noundef %103, ptr noundef %104)
  %105 = load ptr, ptr %4, align 8
  %106 = load i64, ptr %5, align 8
  %107 = and i64 %106, -128
  %108 = getelementptr inbounds i8, ptr %105, i64 %107
  store ptr %108, ptr %4, align 8
  %109 = load i64, ptr %5, align 8
  %110 = and i64 %109, 127
  store i64 %110, ptr %5, align 8
  br label %111

111:                                              ; preds = %100, %99
  br label %112

112:                                              ; preds = %111, %77
  %113 = load i64, ptr %5, align 8
  %114 = icmp ugt i64 %113, 0
  br i1 %114, label %115, label %148

115:                                              ; preds = %112
  %116 = load ptr, ptr %6, align 8
  %117 = getelementptr inbounds %struct.sha512_ctx, ptr %116, i32 0, i32 2
  %118 = load i64, ptr %117, align 8
  store i64 %118, ptr %9, align 8
  %119 = load ptr, ptr %6, align 8
  %120 = getelementptr inbounds %struct.sha512_ctx, ptr %119, i32 0, i32 3
  %121 = load i64, ptr %9, align 8
  %122 = getelementptr inbounds [256 x i8], ptr %120, i64 0, i64 %121
  %123 = load ptr, ptr %4, align 8
  %124 = load i64, ptr %5, align 8
  call void @llvm.memcpy.p0.p0.i64(ptr align 1 %122, ptr align 1 %123, i64 %124, i1 false)
  %125 = load i64, ptr %5, align 8
  %126 = load i64, ptr %9, align 8
  %127 = add i64 %126, %125
  store i64 %127, ptr %9, align 8
  %128 = load i64, ptr %9, align 8
  %129 = icmp uge i64 %128, 128
  br i1 %129, label %130, label %144

130:                                              ; preds = %115
  %131 = load ptr, ptr %6, align 8
  %132 = getelementptr inbounds %struct.sha512_ctx, ptr %131, i32 0, i32 3
  %133 = getelementptr inbounds [256 x i8], ptr %132, i64 0, i64 0
  %134 = load ptr, ptr %6, align 8
  call void @sha512_process_block(ptr noundef %133, i64 noundef 128, ptr noundef %134)
  %135 = load i64, ptr %9, align 8
  %136 = sub i64 %135, 128
  store i64 %136, ptr %9, align 8
  %137 = load ptr, ptr %6, align 8
  %138 = getelementptr inbounds %struct.sha512_ctx, ptr %137, i32 0, i32 3
  %139 = getelementptr inbounds [256 x i8], ptr %138, i64 0, i64 0
  %140 = load ptr, ptr %6, align 8
  %141 = getelementptr inbounds %struct.sha512_ctx, ptr %140, i32 0, i32 3
  %142 = getelementptr inbounds [256 x i8], ptr %141, i64 0, i64 128
  %143 = load i64, ptr %9, align 8
  call void @llvm.memcpy.p0.p0.i64(ptr align 8 %139, ptr align 8 %142, i64 %143, i1 false)
  br label %144

144:                                              ; preds = %130, %115
  %145 = load i64, ptr %9, align 8
  %146 = load ptr, ptr %6, align 8
  %147 = getelementptr inbounds %struct.sha512_ctx, ptr %146, i32 0, i32 2
  store i64 %145, ptr %147, align 8
  br label %148

148:                                              ; preds = %144, %112
  ret void
}