; Function Attrs: nofree norecurse nosync nounwind memory(readwrite, inaccessiblemem: none) uwtable
define internal fastcc void @sha512_process_bytes(ptr noundef %0, i64 noundef %1, ptr nocapture noundef %2) unnamed_addr #5 {
  %4 = getelementptr inbounds i8, ptr %2, i64 80
  %5 = load i64, ptr %4, align 8
  %.not = icmp eq i64 %5, 0
  br i1 %.not, label %24, label %6

6:                                                ; preds = %3
  %7 = sub i64 256, %5
  %8 = tail call i64 @llvm.umin.i64(i64 %7, i64 %1)
  %9 = getelementptr inbounds i8, ptr %2, i64 88
  %10 = getelementptr inbounds [256 x i8], ptr %9, i64 0, i64 %5
  tail call void @llvm.memcpy.p0.p0.i64(ptr nonnull align 1 %10, ptr align 1 %0, i64 %8, i1 false)
  %11 = load i64, ptr %4, align 8
  %12 = add i64 %11, %8
  store i64 %12, ptr %4, align 8
  %13 = icmp ugt i64 %12, 128
  br i1 %13, label %14, label %21

14:                                               ; preds = %6
  %15 = and i64 %12, -128
  tail call fastcc void @sha512_process_block(ptr noundef nonnull %9, i64 noundef %15, ptr noundef nonnull %2)
  %16 = load i64, ptr %4, align 8
  %17 = and i64 %16, 127
  store i64 %17, ptr %4, align 8
  %18 = add i64 %8, %5
  %19 = and i64 %18, -128
  %20 = getelementptr inbounds [256 x i8], ptr %9, i64 0, i64 %19
  tail call void @llvm.memcpy.p0.p0.i64(ptr nonnull align 8 %9, ptr nonnull align 1 %20, i64 %17, i1 false)
  br label %21

21:                                               ; preds = %14, %6
  %22 = getelementptr inbounds i8, ptr %0, i64 %8
  %23 = sub i64 %1, %8
  br label %24

24:                                               ; preds = %21, %3
  %.057 = phi i64 [ %23, %21 ], [ %1, %3 ]
  %.056 = phi ptr [ %22, %21 ], [ %0, %3 ]
  %25 = icmp ugt i64 %.057, 127
  br i1 %25, label %26, label %38

26:                                               ; preds = %24
  %27 = ptrtoint ptr %.056 to i64
  %28 = and i64 %27, 7
  %.not64 = icmp eq i64 %28, 0
  br i1 %.not64, label %34, label %.preheader

.preheader:                                       ; preds = %26
  %.not74 = icmp eq i64 %.057, 128
  br i1 %.not74, label %.thread, label %.lr.ph

.lr.ph:                                           ; preds = %.preheader
  %29 = getelementptr inbounds i8, ptr %2, i64 88
  br label %30

30:                                               ; preds = %.lr.ph, %30
  %.172 = phi ptr [ %.056, %.lr.ph ], [ %31, %30 ]
  %.15871 = phi i64 [ %.057, %.lr.ph ], [ %32, %30 ]
  tail call void @llvm.memcpy.p0.p0.i64(ptr noundef nonnull align 8 dereferenceable(128) %29, ptr noundef nonnull align 1 dereferenceable(128) %.172, i64 128, i1 false)
  tail call fastcc void @sha512_process_block(ptr noundef nonnull %29, i64 noundef 128, ptr noundef nonnull %2)
  %31 = getelementptr inbounds i8, ptr %.172, i64 128
  %32 = add i64 %.15871, -128
  %33 = icmp ugt i64 %32, 128
  br i1 %33, label %30, label %.thread

34:                                               ; preds = %26
  %35 = and i64 %.057, -128
  tail call fastcc void @sha512_process_block(ptr noundef %.056, i64 noundef %35, ptr noundef nonnull %2)
  %36 = getelementptr inbounds i8, ptr %.056, i64 %35
  %37 = and i64 %.057, 127
  br label %38

38:                                               ; preds = %34, %24
  %.259 = phi i64 [ %37, %34 ], [ %.057, %24 ]
  %.2 = phi ptr [ %36, %34 ], [ %.056, %24 ]
  %.not65 = icmp eq i64 %.259, 0
  br i1 %.not65, label %48, label %.thread

.thread:                                          ; preds = %30, %.preheader, %38
  %.270 = phi ptr [ %.2, %38 ], [ %.056, %.preheader ], [ %31, %30 ]
  %.25969 = phi i64 [ %.259, %38 ], [ 128, %.preheader ], [ %32, %30 ]
  %39 = load i64, ptr %4, align 8
  %40 = getelementptr inbounds i8, ptr %2, i64 88
  %41 = getelementptr inbounds [256 x i8], ptr %40, i64 0, i64 %39
  tail call void @llvm.memcpy.p0.p0.i64(ptr nonnull align 1 %41, ptr align 1 %.270, i64 %.25969, i1 false)
  %42 = add i64 %39, %.25969
  %43 = icmp ugt i64 %42, 127
  br i1 %43, label %44, label %47

44:                                               ; preds = %.thread
  tail call fastcc void @sha512_process_block(ptr noundef nonnull %40, i64 noundef 128, ptr noundef nonnull %2)
  %45 = add i64 %42, -128
  %46 = getelementptr inbounds i8, ptr %2, i64 216
  tail call void @llvm.memcpy.p0.p0.i64(ptr nonnull align 8 %40, ptr nonnull align 8 %46, i64 %45, i1 false)
  br label %47

47:                                               ; preds = %44, %.thread
  %.0 = phi i64 [ %45, %44 ], [ %42, %.thread ]
  store i64 %.0, ptr %4, align 8
  br label %48

48:                                               ; preds = %47, %38
  ret void
}